; ModuleID = '39/727.c'
source_filename = "39/727.c"
target datalayout = "e-m:e-p270:32:32-p271:32:32-p272:64:64-i64:64-f80:128-n8:16:32:64-S128"
target triple = "x86_64-pc-linux-gnu"

%struct.stu = type { [20 x i8], i32, i32, [2 x i8], [2 x i8], i32, i32 }

@.str = private unnamed_addr constant [3 x i8] c"%d\00", align 1
@.str.1 = private unnamed_addr constant [13 x i8] c"%s%d%d%s%s%d\00", align 1
@.str.2 = private unnamed_addr constant [2 x i8] c"Y\00", align 1
@.str.3 = private unnamed_addr constant [9 x i8] c"%s\0A%d\0A%d\00", align 1

; Function Attrs: noinline nounwind uwtable
define dso_local i32 @main() #0 {
  %1 = alloca i32, align 4
  %2 = alloca i32, align 4
  %3 = alloca i32, align 4
  %4 = alloca i32, align 4
  %5 = alloca [100 x %struct.stu], align 16
  store i32 0, i32* %1, align 4
  %6 = bitcast [100 x %struct.stu]* %5 to i8*
  call void @llvm.memset.p0i8.i64(i8* align 16 %6, i8 0, i64 4000, i1 false)
  %7 = call i32 (i8*, ...) @__isoc99_scanf(i8* getelementptr inbounds ([3 x i8], [3 x i8]* @.str, i64 0, i64 0), i32* %2)
  store i32 0, i32* %3, align 4
  store i32 0, i32* %4, align 4
  br label %8

8:                                                ; preds = %146, %0
  %9 = load i32, i32* %3, align 4
  %10 = load i32, i32* %2, align 4
  %11 = sub nsw i32 %10, 1
  %12 = icmp sle i32 %9, %11
  br i1 %12, label %13, label %149

13:                                               ; preds = %8
  %14 = load i32, i32* %3, align 4
  %15 = sext i32 %14 to i64
  %16 = getelementptr inbounds [100 x %struct.stu], [100 x %struct.stu]* %5, i64 0, i64 %15
  %17 = getelementptr inbounds %struct.stu, %struct.stu* %16, i32 0, i32 0
  %18 = load i32, i32* %3, align 4
  %19 = sext i32 %18 to i64
  %20 = getelementptr inbounds [100 x %struct.stu], [100 x %struct.stu]* %5, i64 0, i64 %19
  %21 = getelementptr inbounds %struct.stu, %struct.stu* %20, i32 0, i32 1
  %22 = load i32, i32* %3, align 4
  %23 = sext i32 %22 to i64
  %24 = getelementptr inbounds [100 x %struct.stu], [100 x %struct.stu]* %5, i64 0, i64 %23
  %25 = getelementptr inbounds %struct.stu, %struct.stu* %24, i32 0, i32 2
  %26 = load i32, i32* %3, align 4
  %27 = sext i32 %26 to i64
  %28 = getelementptr inbounds [100 x %struct.stu], [100 x %struct.stu]* %5, i64 0, i64 %27
  %29 = getelementptr inbounds %struct.stu, %struct.stu* %28, i32 0, i32 3
  %30 = load i32, i32* %3, align 4
  %31 = sext i32 %30 to i64
  %32 = getelementptr inbounds [100 x %struct.stu], [100 x %struct.stu]* %5, i64 0, i64 %31
  %33 = getelementptr inbounds %struct.stu, %struct.stu* %32, i32 0, i32 4
  %34 = load i32, i32* %3, align 4
  %35 = sext i32 %34 to i64
  %36 = getelementptr inbounds [100 x %struct.stu], [100 x %struct.stu]* %5, i64 0, i64 %35
  %37 = getelementptr inbounds %struct.stu, %struct.stu* %36, i32 0, i32 5
  %38 = call i32 (i8*, ...) @__isoc99_scanf(i8* getelementptr inbounds ([13 x i8], [13 x i8]* @.str.1, i64 0, i64 0), [20 x i8]* %17, i32* %21, i32* %25, [2 x i8]* %29, [2 x i8]* %33, i32* %37)
  %39 = load i32, i32* %3, align 4
  %40 = sext i32 %39 to i64
  %41 = getelementptr inbounds [100 x %struct.stu], [100 x %struct.stu]* %5, i64 0, i64 %40
  %42 = getelementptr inbounds %struct.stu, %struct.stu* %41, i32 0, i32 1
  %43 = load i32, i32* %42, align 4
  %44 = icmp sgt i32 %43, 80
  br i1 %44, label %45, label %59

45:                                               ; preds = %13
  %46 = load i32, i32* %3, align 4
  %47 = sext i32 %46 to i64
  %48 = getelementptr inbounds [100 x %struct.stu], [100 x %struct.stu]* %5, i64 0, i64 %47
  %49 = getelementptr inbounds %struct.stu, %struct.stu* %48, i32 0, i32 5
  %50 = load i32, i32* %49, align 8
  %51 = icmp sge i32 %50, 1
  br i1 %51, label %52, label %59

52:                                               ; preds = %45
  %53 = load i32, i32* %3, align 4
  %54 = sext i32 %53 to i64
  %55 = getelementptr inbounds [100 x %struct.stu], [100 x %struct.stu]* %5, i64 0, i64 %54
  %56 = getelementptr inbounds %struct.stu, %struct.stu* %55, i32 0, i32 6
  %57 = load i32, i32* %56, align 4
  %58 = add nsw i32 %57, 8000
  store i32 %58, i32* %56, align 4
  br label %59

59:                                               ; preds = %52, %45, %13
  %60 = load i32, i32* %3, align 4
  %61 = sext i32 %60 to i64
  %62 = getelementptr inbounds [100 x %struct.stu], [100 x %struct.stu]* %5, i64 0, i64 %61
  %63 = getelementptr inbounds %struct.stu, %struct.stu* %62, i32 0, i32 1
  %64 = load i32, i32* %63, align 4
  %65 = icmp sgt i32 %64, 85
  br i1 %65, label %66, label %80

66:                                               ; preds = %59
  %67 = load i32, i32* %3, align 4
  %68 = sext i32 %67 to i64
  %69 = getelementptr inbounds [100 x %struct.stu], [100 x %struct.stu]* %5, i64 0, i64 %68
  %70 = getelementptr inbounds %struct.stu, %struct.stu* %69, i32 0, i32 2
  %71 = load i32, i32* %70, align 8
  %72 = icmp sgt i32 %71, 80
  br i1 %72, label %73, label %80

73:                                               ; preds = %66
  %74 = load i32, i32* %3, align 4
  %75 = sext i32 %74 to i64
  %76 = getelementptr inbounds [100 x %struct.stu], [100 x %struct.stu]* %5, i64 0, i64 %75
  %77 = getelementptr inbounds %struct.stu, %struct.stu* %76, i32 0, i32 6
  %78 = load i32, i32* %77, align 4
  %79 = add nsw i32 %78, 4000
  store i32 %79, i32* %77, align 4
  br label %80

80:                                               ; preds = %73, %66, %59
  %81 = load i32, i32* %3, align 4
  %82 = sext i32 %81 to i64
  %83 = getelementptr inbounds [100 x %struct.stu], [100 x %struct.stu]* %5, i64 0, i64 %82
  %84 = getelementptr inbounds %struct.stu, %struct.stu* %83, i32 0, i32 1
  %85 = load i32, i32* %84, align 4
  %86 = icmp sgt i32 %85, 90
  br i1 %86, label %87, label %94

87:                                               ; preds = %80
  %88 = load i32, i32* %3, align 4
  %89 = sext i32 %88 to i64
  %90 = getelementptr inbounds [100 x %struct.stu], [100 x %struct.stu]* %5, i64 0, i64 %89
  %91 = getelementptr inbounds %struct.stu, %struct.stu* %90, i32 0, i32 6
  %92 = load i32, i32* %91, align 4
  %93 = add nsw i32 %92, 2000
  store i32 %93, i32* %91, align 4
  br label %94

94:                                               ; preds = %87, %80
  %95 = load i32, i32* %3, align 4
  %96 = sext i32 %95 to i64
  %97 = getelementptr inbounds [100 x %struct.stu], [100 x %struct.stu]* %5, i64 0, i64 %96
  %98 = getelementptr inbounds %struct.stu, %struct.stu* %97, i32 0, i32 1
  %99 = load i32, i32* %98, align 4
  %100 = icmp sgt i32 %99, 85
  br i1 %100, label %101, label %116

101:                                              ; preds = %94
  %102 = load i32, i32* %3, align 4
  %103 = sext i32 %102 to i64
  %104 = getelementptr inbounds [100 x %struct.stu], [100 x %struct.stu]* %5, i64 0, i64 %103
  %105 = getelementptr inbounds %struct.stu, %struct.stu* %104, i32 0, i32 4
  %106 = getelementptr inbounds [2 x i8], [2 x i8]* %105, i64 0, i64 0
  %107 = call i32 @strcmp(i8* %106, i8* getelementptr inbounds ([2 x i8], [2 x i8]* @.str.2, i64 0, i64 0)) #4
  %108 = icmp eq i32 %107, 0
  br i1 %108, label %109, label %116

109:                                              ; preds = %101
  %110 = load i32, i32* %3, align 4
  %111 = sext i32 %110 to i64
  %112 = getelementptr inbounds [100 x %struct.stu], [100 x %struct.stu]* %5, i64 0, i64 %111
  %113 = getelementptr inbounds %struct.stu, %struct.stu* %112, i32 0, i32 6
  %114 = load i32, i32* %113, align 4
  %115 = add nsw i32 %114, 1000
  store i32 %115, i32* %113, align 4
  br label %116

116:                                              ; preds = %109, %101, %94
  %117 = load i32, i32* %3, align 4
  %118 = sext i32 %117 to i64
  %119 = getelementptr inbounds [100 x %struct.stu], [100 x %struct.stu]* %5, i64 0, i64 %118
  %120 = getelementptr inbounds %struct.stu, %struct.stu* %119, i32 0, i32 2
  %121 = load i32, i32* %120, align 8
  %122 = icmp sgt i32 %121, 80
  br i1 %122, label %123, label %138

123:                                              ; preds = %116
  %124 = load i32, i32* %3, align 4
  %125 = sext i32 %124 to i64
  %126 = getelementptr inbounds [100 x %struct.stu], [100 x %struct.stu]* %5, i64 0, i64 %125
  %127 = getelementptr inbounds %struct.stu, %struct.stu* %126, i32 0, i32 3
  %128 = getelementptr inbounds [2 x i8], [2 x i8]* %127, i64 0, i64 0
  %129 = call i32 @strcmp(i8* %128, i8* getelementptr inbounds ([2 x i8], [2 x i8]* @.str.2, i64 0, i64 0)) #4
  %130 = icmp eq i32 %129, 0
  br i1 %130, label %131, label %138

131:                                              ; preds = %123
  %132 = load i32, i32* %3, align 4
  %133 = sext i32 %132 to i64
  %134 = getelementptr inbounds [100 x %struct.stu], [100 x %struct.stu]* %5, i64 0, i64 %133
  %135 = getelementptr inbounds %struct.stu, %struct.stu* %134, i32 0, i32 6
  %136 = load i32, i32* %135, align 4
  %137 = add nsw i32 %136, 850
  store i32 %137, i32* %135, align 4
  br label %138

138:                                              ; preds = %131, %123, %116
  %139 = load i32, i32* %3, align 4
  %140 = sext i32 %139 to i64
  %141 = getelementptr inbounds [100 x %struct.stu], [100 x %struct.stu]* %5, i64 0, i64 %140
  %142 = getelementptr inbounds %struct.stu, %struct.stu* %141, i32 0, i32 6
  %143 = load i32, i32* %142, align 4
  %144 = load i32, i32* %4, align 4
  %145 = add nsw i32 %144, %143
  store i32 %145, i32* %4, align 4
  br label %146

146:                                              ; preds = %138
  %147 = load i32, i32* %3, align 4
  %148 = add nsw i32 %147, 1
  store i32 %148, i32* %3, align 4
  br label %8

149:                                              ; preds = %8
  store i32 0, i32* %3, align 4
  br label %150

150:                                              ; preds = %179, %149
  %151 = load i32, i32* %3, align 4
  %152 = load i32, i32* %2, align 4
  %153 = sub nsw i32 %152, 1
  %154 = icmp sle i32 %151, %153
  br i1 %154, label %155, label %182

155:                                              ; preds = %150
  %156 = load i32, i32* %3, align 4
  %157 = sext i32 %156 to i64
  %158 = getelementptr inbounds [100 x %struct.stu], [100 x %struct.stu]* %5, i64 0, i64 %157
  %159 = getelementptr inbounds %struct.stu, %struct.stu* %158, i32 0, i32 6
  %160 = load i32, i32* %159, align 4
  %161 = load i32, i32* %3, align 4
  %162 = add nsw i32 %161, 1
  %163 = sext i32 %162 to i64
  %164 = getelementptr inbounds [100 x %struct.stu], [100 x %struct.stu]* %5, i64 0, i64 %163
  %165 = getelementptr inbounds %struct.stu, %struct.stu* %164, i32 0, i32 6
  %166 = load i32, i32* %165, align 4
  %167 = icmp sge i32 %160, %166
  br i1 %167, label %168, label %178

168:                                              ; preds = %155
  %169 = load i32, i32* %3, align 4
  %170 = add nsw i32 %169, 1
  %171 = sext i32 %170 to i64
  %172 = getelementptr inbounds [100 x %struct.stu], [100 x %struct.stu]* %5, i64 0, i64 %171
  %173 = load i32, i32* %3, align 4
  %174 = sext i32 %173 to i64
  %175 = getelementptr inbounds [100 x %struct.stu], [100 x %struct.stu]* %5, i64 0, i64 %174
  %176 = bitcast %struct.stu* %172 to i8*
  %177 = bitcast %struct.stu* %175 to i8*
  call void @llvm.memcpy.p0i8.p0i8.i64(i8* align 8 %176, i8* align 8 %177, i64 40, i1 false)
  br label %178

178:                                              ; preds = %168, %155
  br label %179

179:                                              ; preds = %178
  %180 = load i32, i32* %3, align 4
  %181 = add nsw i32 %180, 1
  store i32 %181, i32* %3, align 4
  br label %150

182:                                              ; preds = %150
  %183 = load i32, i32* %2, align 4
  %184 = sub nsw i32 %183, 1
  %185 = sext i32 %184 to i64
  %186 = getelementptr inbounds [100 x %struct.stu], [100 x %struct.stu]* %5, i64 0, i64 %185
  %187 = getelementptr inbounds %struct.stu, %struct.stu* %186, i32 0, i32 0
  %188 = getelementptr inbounds [20 x i8], [20 x i8]* %187, i64 0, i64 0
  %189 = load i32, i32* %2, align 4
  %190 = sub nsw i32 %189, 1
  %191 = sext i32 %190 to i64
  %192 = getelementptr inbounds [100 x %struct.stu], [100 x %struct.stu]* %5, i64 0, i64 %191
  %193 = getelementptr inbounds %struct.stu, %struct.stu* %192, i32 0, i32 6
  %194 = load i32, i32* %193, align 4
  %195 = load i32, i32* %4, align 4
  %196 = call i32 (i8*, ...) @printf(i8* getelementptr inbounds ([9 x i8], [9 x i8]* @.str.3, i64 0, i64 0), i8* %188, i32 %194, i32 %195)
  %197 = load i32, i32* %1, align 4
  ret i32 %197
}

; Function Attrs: argmemonly nounwind willreturn
declare void @llvm.memset.p0i8.i64(i8* nocapture writeonly, i8, i64, i1 immarg) #1

declare dso_local i32 @__isoc99_scanf(i8*, ...) #2

; Function Attrs: nounwind readonly
declare dso_local i32 @strcmp(i8*, i8*) #3

; Function Attrs: argmemonly nounwind willreturn
declare void @llvm.memcpy.p0i8.p0i8.i64(i8* noalias nocapture writeonly, i8* noalias nocapture readonly, i64, i1 immarg) #1

declare dso_local i32 @printf(i8*, ...) #2


!llvm.module.flags = !{!0}
!llvm.ident = !{!1}

!0 = !{i32 1, !"wchar_size", i32 4}
!1 = !{!"clang version 10.0.0-4ubuntu1 "}
